target datalayout = "e-m:e-p270:32:32-p271:32:32-p272:64:64-i64:64-i128:128-f80:128-n8:16:32:64-S128"
target triple = "x86_64-pc-linux-gnu"

%"class.icu_77::UCharCharacterIterator" = type { %"class.icu_77::CharacterIterator", ptr }
%"class.icu_77::CharacterIterator" = type { %"class.icu_77::ForwardCharacterIterator", i32, i32, i32, i32 }
%"class.icu_77::ForwardCharacterIterator" = type { %"class.icu_77::UObject" }
%"class.icu_77::UObject" = type { ptr }

; Function Attrs: mustprogress nounwind uwtable
define noundef i32 @_ZN6icu_7722UCharCharacterIterator6next32Ev(ptr noundef nonnull align 8 dereferenceable(32) %0) unnamed_addr #0 align 2 {
  %2 = alloca i32, align 4
  %3 = alloca ptr, align 8
  %4 = alloca i32, align 4
  %5 = alloca i32, align 4
  %6 = alloca i16, align 2
  store ptr %0, ptr %3, align 8, !tbaa !3
  %7 = load ptr, ptr %3, align 8
  %8 = getelementptr inbounds nuw %"class.icu_77::CharacterIterator", ptr %7, i32 0, i32 2
  %9 = load i32, ptr %8, align 4, !tbaa !23
  %10 = getelementptr inbounds nuw %"class.icu_77::CharacterIterator", ptr %7, i32 0, i32 4
  %11 = load i32, ptr %10, align 4, !tbaa !25
  %12 = icmp slt i32 %9, %11
  br i1 %12, label %13, label %99

13:                                               ; preds = %1
  br label %14

14:                                               ; preds = %13
  %15 = getelementptr inbounds nuw %"class.icu_77::UCharCharacterIterator", ptr %7, i32 0, i32 1
  %16 = load ptr, ptr %15, align 8, !tbaa !10
  %17 = getelementptr inbounds nuw %"class.icu_77::CharacterIterator", ptr %7, i32 0, i32 2
  %18 = load i32, ptr %17, align 4, !tbaa !23
  %19 = add nsw i32 %18, 1
  store i32 %19, ptr %17, align 4, !tbaa !23
  %20 = sext i32 %18 to i64
  %21 = getelementptr inbounds i16, ptr %16, i64 %20
  %22 = load i16, ptr %21, align 2, !tbaa !28
  %23 = zext i16 %22 to i32
  %24 = and i32 %23, -1024
  %25 = icmp eq i32 %24, 55296
  br i1 %25, label %26, label %47

26:                                               ; preds = %14
  %27 = getelementptr inbounds nuw %"class.icu_77::CharacterIterator", ptr %7, i32 0, i32 2
  %28 = load i32, ptr %27, align 4, !tbaa !23
  %29 = getelementptr inbounds nuw %"class.icu_77::CharacterIterator", ptr %7, i32 0, i32 4
  %30 = load i32, ptr %29, align 4, !tbaa !25
  %31 = icmp ne i32 %28, %30
  br i1 %31, label %32, label %47

32:                                               ; preds = %26
  %33 = getelementptr inbounds nuw %"class.icu_77::UCharCharacterIterator", ptr %7, i32 0, i32 1
  %34 = load ptr, ptr %33, align 8, !tbaa !10
  %35 = getelementptr inbounds nuw %"class.icu_77::CharacterIterator", ptr %7, i32 0, i32 2
  %36 = load i32, ptr %35, align 4, !tbaa !23
  %37 = sext i32 %36 to i64
  %38 = getelementptr inbounds i16, ptr %34, i64 %37
  %39 = load i16, ptr %38, align 2, !tbaa !28
  %40 = zext i16 %39 to i32
  %41 = and i32 %40, -1024
  %42 = icmp eq i32 %41, 56320
  br i1 %42, label %43, label %47

43:                                               ; preds = %32
  %44 = getelementptr inbounds nuw %"class.icu_77::CharacterIterator", ptr %7, i32 0, i32 2
  %45 = load i32, ptr %44, align 4, !tbaa !23
  %46 = add nsw i32 %45, 1
  store i32 %46, ptr %44, align 4, !tbaa !23
  br label %47

47:                                               ; preds = %43, %32, %26, %14
  br label %48

48:                                               ; preds = %47
  %49 = getelementptr inbounds nuw %"class.icu_77::CharacterIterator", ptr %7, i32 0, i32 2
  %50 = load i32, ptr %49, align 4, !tbaa !23
  %51 = getelementptr inbounds nuw %"class.icu_77::CharacterIterator", ptr %7, i32 0, i32 4
  %52 = load i32, ptr %51, align 4, !tbaa !25
  %53 = icmp slt i32 %50, %52
  br i1 %53, label %54, label %98

54:                                               ; preds = %48
  call void @llvm.lifetime.start.p0(i64 4, ptr %4) #7
  %55 = getelementptr inbounds nuw %"class.icu_77::CharacterIterator", ptr %7, i32 0, i32 2
  %56 = load i32, ptr %55, align 4, !tbaa !23
  store i32 %56, ptr %4, align 4, !tbaa !19
  call void @llvm.lifetime.start.p0(i64 4, ptr %5) #7
  br label %57

57:                                               ; preds = %54
  %58 = getelementptr inbounds nuw %"class.icu_77::UCharCharacterIterator", ptr %7, i32 0, i32 1
  %59 = load ptr, ptr %58, align 8, !tbaa !10
  %60 = load i32, ptr %4, align 4, !tbaa !19
  %61 = add nsw i32 %60, 1
  store i32 %61, ptr %4, align 4, !tbaa !19
  %62 = sext i32 %60 to i64
  %63 = getelementptr inbounds i16, ptr %59, i64 %62
  %64 = load i16, ptr %63, align 2, !tbaa !28
  %65 = zext i16 %64 to i32
  store i32 %65, ptr %5, align 4, !tbaa !19
  %66 = load i32, ptr %5, align 4, !tbaa !19
  %67 = and i32 %66, -1024
  %68 = icmp eq i32 %67, 55296
  br i1 %68, label %69, label %94

69:                                               ; preds = %57
  call void @llvm.lifetime.start.p0(i64 2, ptr %6) #7
  %70 = load i32, ptr %4, align 4, !tbaa !19
  %71 = getelementptr inbounds nuw %"class.icu_77::CharacterIterator", ptr %7, i32 0, i32 4
  %72 = load i32, ptr %71, align 4, !tbaa !25
  %73 = icmp ne i32 %70, %72
  br i1 %73, label %74, label %93

74:                                               ; preds = %69
  %75 = getelementptr inbounds nuw %"class.icu_77::UCharCharacterIterator", ptr %7, i32 0, i32 1
  %76 = load ptr, ptr %75, align 8, !tbaa !10
  %77 = load i32, ptr %4, align 4, !tbaa !19
  %78 = sext i32 %77 to i64
  %79 = getelementptr inbounds i16, ptr %76, i64 %78
  %80 = load i16, ptr %79, align 2, !tbaa !28
  store i16 %80, ptr %6, align 2, !tbaa !30
  %81 = zext i16 %80 to i32
  %82 = and i32 %81, -1024
  %83 = icmp eq i32 %82, 56320
  br i1 %83, label %84, label %93

84:                                               ; preds = %74
  %85 = load i32, ptr %4, align 4, !tbaa !19
  %86 = add nsw i32 %85, 1
  store i32 %86, ptr %4, align 4, !tbaa !19
  %87 = load i32, ptr %5, align 4, !tbaa !19
  %88 = shl i32 %87, 10
  %89 = load i16, ptr %6, align 2, !tbaa !30
  %90 = zext i16 %89 to i32
  %91 = add nsw i32 %88, %90
  %92 = sub nsw i32 %91, 56613888
  store i32 %92, ptr %5, align 4, !tbaa !19
  br label %93

93:                                               ; preds = %84, %74, %69
  call void @llvm.lifetime.end.p0(i64 2, ptr %6) #7
  br label %94

94:                                               ; preds = %93, %57
  br label %95

95:                                               ; preds = %94
  br label %96

96:                                               ; preds = %95
  %97 = load i32, ptr %5, align 4, !tbaa !19
  store i32 %97, ptr %2, align 4
  call void @llvm.lifetime.end.p0(i64 4, ptr %5) #7
  call void @llvm.lifetime.end.p0(i64 4, ptr %4) #7
  br label %103

98:                                               ; preds = %48
  br label %99

99:                                               ; preds = %98, %1
  %100 = getelementptr inbounds nuw %"class.icu_77::CharacterIterator", ptr %7, i32 0, i32 4
  %101 = load i32, ptr %100, align 4, !tbaa !25
  %102 = getelementptr inbounds nuw %"class.icu_77::CharacterIterator", ptr %7, i32 0, i32 2
  store i32 %101, ptr %102, align 4, !tbaa !23
  store i32 65535, ptr %2, align 4
  br label %103

103:                                              ; preds = %99, %96
  %104 = load i32, ptr %2, align 4
  ret i32 %104
}