; Function Attrs: mustprogress nofree norecurse nosync nounwind willreturn memory(read, argmem: readwrite, inaccessiblemem: none) uwtable
define noundef range(i32 0, 10559488) i32 @_ZN6icu_7722UCharCharacterIterator6next32Ev(ptr noundef nonnull align 8 captures(none) dereferenceable(32) %0) unnamed_addr #7 align 2 {
  %2 = getelementptr inbounds nuw i8, ptr %0, i64 12
  %3 = load i32, ptr %2, align 4, !tbaa !22
  %4 = getelementptr inbounds nuw i8, ptr %0, i64 20
  %5 = load i32, ptr %4, align 4, !tbaa !24
  %6 = icmp slt i32 %3, %5
  br i1 %6, label %7, label %46

7:                                                ; preds = %1
  %8 = getelementptr inbounds nuw i8, ptr %0, i64 24
  %9 = load ptr, ptr %8, align 8, !tbaa !6
  %10 = add nsw i32 %3, 1
  store i32 %10, ptr %2, align 4, !tbaa !22
  %11 = sext i32 %3 to i64
  %12 = getelementptr inbounds i16, ptr %9, i64 %11
  %13 = load i16, ptr %12, align 2, !tbaa !25
  %14 = and i16 %13, -1024
  %15 = icmp ne i16 %14, -10240
  %.not = icmp eq i32 %10, %5
  %or.cond = select i1 %15, i1 true, i1 %.not
  br i1 %or.cond, label %24, label %16

16:                                               ; preds = %7
  %17 = sext i32 %10 to i64
  %18 = getelementptr inbounds i16, ptr %9, i64 %17
  %19 = load i16, ptr %18, align 2, !tbaa !25
  %20 = and i16 %19, -1024
  %21 = icmp eq i16 %20, -9216
  br i1 %21, label %22, label %24

22:                                               ; preds = %16
  %23 = add nsw i32 %3, 2
  store i32 %23, ptr %2, align 4, !tbaa !22
  br label %24

24:                                               ; preds = %7, %16, %22
  %25 = phi i32 [ %10, %7 ], [ %10, %16 ], [ %23, %22 ]
  %26 = icmp slt i32 %25, %5
  br i1 %26, label %27, label %46

27:                                               ; preds = %24
  %28 = add nsw i32 %25, 1
  %29 = sext i32 %25 to i64
  %30 = getelementptr inbounds i16, ptr %9, i64 %29
  %31 = load i16, ptr %30, align 2, !tbaa !25
  %32 = zext i16 %31 to i32
  %33 = and i32 %32, 64512
  %34 = icmp ne i32 %33, 55296
  %.not15 = icmp eq i32 %28, %5
  %or.cond16 = select i1 %34, i1 true, i1 %.not15
  br i1 %or.cond16, label %47, label %35

35:                                               ; preds = %27
  %36 = sext i32 %28 to i64
  %37 = getelementptr inbounds i16, ptr %9, i64 %36
  %38 = load i16, ptr %37, align 2, !tbaa !25
  %39 = zext i16 %38 to i32
  %40 = and i32 %39, 64512
  %41 = icmp eq i32 %40, 56320
  br i1 %41, label %42, label %47

42:                                               ; preds = %35
  %43 = shl nuw nsw i32 %32, 10
  %44 = add nsw i32 %43, -56613888
  %45 = add nuw nsw i32 %44, %39
  br label %47

46:                                               ; preds = %24, %1
  store i32 %5, ptr %2, align 4, !tbaa !22
  br label %47

47:                                               ; preds = %27, %42, %35, %46
  %.0 = phi i32 [ 65535, %46 ], [ %32, %27 ], [ %45, %42 ], [ %32, %35 ]
  ret i32 %.0
}